; Function Attrs: mustprogress nounwind uwtable
define dso_local { ptr, i64 } @_ZNK4llvm6object15XCOFFObjectFile10sections32Ev(ptr noundef nonnull align 8 dereferenceable(96) %0) local_unnamed_addr #0 align 2 {
  %2 = getelementptr inbounds nuw i8, ptr %0, i64 64
  %3 = load ptr, ptr %2, align 8
  %4 = load ptr, ptr %0, align 8
  %5 = getelementptr inbounds i8, ptr %4, i64 64
  %6 = load ptr, ptr %5, align 8
  %7 = tail call noundef zeroext i1 %6(ptr noundef nonnull align 8 dereferenceable(96) %0) #23
  %8 = getelementptr inbounds nuw i8, ptr %0, i64 48
  %9 = load ptr, ptr %8, align 8
  %10 = getelementptr inbounds nuw i8, ptr %9, i64 2
  call void @llvm.assume(i1 true) [ "align"(ptr %10, i64 1) ]
  %.0.copyload.i.i.i.i = load i16, ptr %10, align 1
  %rev.i.i.i.i.i.i.i.i = tail call noundef i16 @llvm.bswap.i16(i16 %.0.copyload.i.i.i.i)
  %11 = zext i16 %rev.i.i.i.i.i.i.i.i to i64
  %.fca.0.insert = insertvalue { ptr, i64 } poison, ptr %3, 0
  %.fca.1.insert = insertvalue { ptr, i64 } %.fca.0.insert, i64 %11, 1
  ret { ptr, i64 } %.fca.1.insert
}